; Function Attrs: nounwind uwtable
define zeroext i8 @l_Lake_Toml_RBDict_beq___rarg(ptr noundef %0, ptr noundef readonly captures(none) %1, ptr noundef readonly captures(none) %2) local_unnamed_addr #0 {
lean_dec.exit17:
  %3 = getelementptr inbounds nuw i8, ptr %1, i64 8
  %4 = load ptr, ptr %3, align 8, !tbaa !4
  %5 = getelementptr inbounds nuw i8, ptr %2, i64 8
  %6 = load ptr, ptr %5, align 8, !tbaa !4
  %7 = getelementptr i8, ptr %4, i64 8
  %.val22 = load i64, ptr %7, align 8, !tbaa !14
  %8 = shl i64 %.val22, 1
  %9 = getelementptr i8, ptr %6, i64 8
  %.val = load i64, ptr %9, align 8, !tbaa !14
  %10 = shl i64 %.val, 1
  %.not = icmp eq i64 %8, %10
  br i1 %.not, label %20, label %lean_dec.exit16

lean_dec.exit16:                                  ; preds = %lean_dec.exit17
  %11 = ptrtoint ptr %0 to i64
  %12 = and i64 %11, 1
  %.not23 = icmp eq i64 %12, 0
  br i1 %.not23, label %13, label %lean_dec.exit

13:                                               ; preds = %lean_dec.exit16
  %14 = load i32, ptr %0, align 4, !tbaa !8
  %15 = icmp sgt i32 %14, 1
  br i1 %15, label %16, label %18, !prof !13

16:                                               ; preds = %13
  %17 = add nsw i32 %14, -1
  store i32 %17, ptr %0, align 4, !tbaa !8
  br label %lean_dec.exit

18:                                               ; preds = %13
  %.not.i20 = icmp eq i32 %14, 0
  br i1 %.not.i20, label %lean_dec.exit, label %19

19:                                               ; preds = %18
  tail call void @lean_dec_ref_cold(ptr noundef nonnull %0) #5
  br label %lean_dec.exit

20:                                               ; preds = %lean_dec.exit17
  %21 = or disjoint i64 %8, 1
  %22 = inttoptr i64 %21 to ptr
  %23 = tail call zeroext i8 @l_Array_isEqvAux___rarg(ptr noundef nonnull %4, ptr noundef nonnull %6, ptr noundef nonnull inttoptr (i64 1 to ptr), ptr noundef %0, ptr noundef nonnull %22, ptr noundef nonnull inttoptr (i64 1 to ptr)) #5
  br label %lean_dec.exit

lean_dec.exit:                                    ; preds = %lean_dec.exit16, %16, %18, %19, %20
  %.0 = phi i8 [ %23, %20 ], [ 0, %19 ], [ 0, %18 ], [ 0, %16 ], [ 0, %lean_dec.exit16 ]
  ret i8 %.0
}